target datalayout = "e-m:e-p270:32:32-p271:32:32-p272:64:64-i64:64-i128:128-f80:128-n8:16:32:64-S128"
target triple = "x86_64-pc-linux-gnu"

%struct.ArrayBuildState = type { ptr, ptr, ptr, i32, i32, i32, i16, i8, i8, i8 }
%struct.ArrayBuildStateAny = type { ptr, ptr }

@CurrentMemoryContext = external global ptr, align 8

; Function Attrs: inlinehint nounwind uwtable
define internal i64 @PointerGetDatum(ptr noundef %0) #2 {
  %2 = alloca ptr, align 8
  store ptr %0, ptr %2, align 8
  %3 = load ptr, ptr %2, align 8
  %4 = ptrtoint ptr %3 to i64
  ret i64 %4
}

; Function Attrs: inlinehint nounwind uwtable
define internal ptr @MemoryContextSwitchTo(ptr noundef %0) #2 {
  %2 = alloca ptr, align 8
  %3 = alloca ptr, align 8
  store ptr %0, ptr %2, align 8
  call void @llvm.lifetime.start.p0(i64 8, ptr %3) #11
  %4 = load ptr, ptr @CurrentMemoryContext, align 8
  store ptr %4, ptr %3, align 8
  %5 = load ptr, ptr %2, align 8
  store ptr %5, ptr @CurrentMemoryContext, align 8
  %6 = load ptr, ptr %3, align 8
  call void @llvm.lifetime.end.p0(i64 8, ptr %3) #11
  ret ptr %6
}

; Function Attrs: nounwind uwtable
define dso_local i64 @makeMdArrayResult(ptr noundef %0, i32 noundef %1, ptr noundef %2, ptr noundef %3, ptr noundef %4, i1 noundef zeroext %5) #0 {
  %7 = alloca ptr, align 8
  %8 = alloca i32, align 4
  %9 = alloca ptr, align 8
  %10 = alloca ptr, align 8
  %11 = alloca ptr, align 8
  %12 = alloca i8, align 1
  %13 = alloca ptr, align 8
  %14 = alloca ptr, align 8
  store ptr %0, ptr %7, align 8
  store i32 %1, ptr %8, align 4
  store ptr %2, ptr %9, align 8
  store ptr %3, ptr %10, align 8
  store ptr %4, ptr %11, align 8
  %15 = zext i1 %5 to i8
  store i8 %15, ptr %12, align 1
  call void @llvm.lifetime.start.p0(i64 8, ptr %13) #11
  call void @llvm.lifetime.start.p0(i64 8, ptr %14) #11
  %16 = load ptr, ptr %11, align 8
  %17 = call ptr @MemoryContextSwitchTo(ptr noundef %16)
  store ptr %17, ptr %14, align 8
  %18 = load ptr, ptr %7, align 8
  %19 = getelementptr inbounds nuw %struct.ArrayBuildState, ptr %18, i32 0, i32 1
  %20 = load ptr, ptr %19, align 8
  %21 = load ptr, ptr %7, align 8
  %22 = getelementptr inbounds nuw %struct.ArrayBuildState, ptr %21, i32 0, i32 2
  %23 = load ptr, ptr %22, align 8
  %24 = load i32, ptr %8, align 4
  %25 = load ptr, ptr %9, align 8
  %26 = load ptr, ptr %10, align 8
  %27 = load ptr, ptr %7, align 8
  %28 = getelementptr inbounds nuw %struct.ArrayBuildState, ptr %27, i32 0, i32 5
  %29 = load i32, ptr %28, align 8
  %30 = load ptr, ptr %7, align 8
  %31 = getelementptr inbounds nuw %struct.ArrayBuildState, ptr %30, i32 0, i32 6
  %32 = load i16, ptr %31, align 4
  %33 = sext i16 %32 to i32
  %34 = load ptr, ptr %7, align 8
  %35 = getelementptr inbounds nuw %struct.ArrayBuildState, ptr %34, i32 0, i32 7
  %36 = load i8, ptr %35, align 2, !range !4, !noundef !5
  %37 = trunc i8 %36 to i1
  %38 = load ptr, ptr %7, align 8
  %39 = getelementptr inbounds nuw %struct.ArrayBuildState, ptr %38, i32 0, i32 8
  %40 = load i8, ptr %39, align 1
  %41 = call ptr @construct_md_array(ptr noundef %20, ptr noundef %23, i32 noundef %24, ptr noundef %25, ptr noundef %26, i32 noundef %29, i32 noundef %33, i1 noundef zeroext %37, i8 noundef signext %40)
  store ptr %41, ptr %13, align 8
  %42 = load ptr, ptr %14, align 8
  %43 = call ptr @MemoryContextSwitchTo(ptr noundef %42)
  %44 = load i8, ptr %12, align 1, !range !4, !noundef !5
  %45 = trunc i8 %44 to i1
  br i1 %45, label %46, label %50

46:                                               ; preds = %6
  %47 = load ptr, ptr %7, align 8
  %48 = getelementptr inbounds nuw %struct.ArrayBuildState, ptr %47, i32 0, i32 0
  %49 = load ptr, ptr %48, align 8
  call void @MemoryContextDelete(ptr noundef %49)
  br label %50

50:                                               ; preds = %46, %6
  %51 = load ptr, ptr %13, align 8
  %52 = call i64 @PointerGetDatum(ptr noundef %51)
  call void @llvm.lifetime.end.p0(i64 8, ptr %14) #11
  call void @llvm.lifetime.end.p0(i64 8, ptr %13) #11
  ret i64 %52
}

; Function Attrs: nounwind uwtable
define dso_local i64 @makeArrayResultAny(ptr noundef %0, ptr noundef %1, i1 noundef zeroext %2) #0 {
  %4 = alloca ptr, align 8
  %5 = alloca ptr, align 8
  %6 = alloca i8, align 1
  %7 = alloca i64, align 8
  %8 = alloca i32, align 4
  %9 = alloca [1 x i32], align 4
  %10 = alloca [1 x i32], align 4
  store ptr %0, ptr %4, align 8
  store ptr %1, ptr %5, align 8
  %11 = zext i1 %2 to i8
  store i8 %11, ptr %6, align 1
  call void @llvm.lifetime.start.p0(i64 8, ptr %7) #11
  %12 = load ptr, ptr %4, align 8
  %13 = getelementptr inbounds nuw %struct.ArrayBuildStateAny, ptr %12, i32 0, i32 0
  %14 = load ptr, ptr %13, align 8
  %15 = icmp ne ptr %14, null
  br i1 %15, label %16, label %41

16:                                               ; preds = %3
  call void @llvm.lifetime.start.p0(i64 4, ptr %8) #11
  call void @llvm.lifetime.start.p0(i64 4, ptr %9) #11
  call void @llvm.lifetime.start.p0(i64 4, ptr %10) #11
  %17 = load ptr, ptr %4, align 8
  %18 = getelementptr inbounds nuw %struct.ArrayBuildStateAny, ptr %17, i32 0, i32 0
  %19 = load ptr, ptr %18, align 8
  %20 = getelementptr inbounds nuw %struct.ArrayBuildState, ptr %19, i32 0, i32 4
  %21 = load i32, ptr %20, align 4
  %22 = icmp sgt i32 %21, 0
  %23 = select i1 %22, i32 1, i32 0
  store i32 %23, ptr %8, align 4
  %24 = load ptr, ptr %4, align 8
  %25 = getelementptr inbounds nuw %struct.ArrayBuildStateAny, ptr %24, i32 0, i32 0
  %26 = load ptr, ptr %25, align 8
  %27 = getelementptr inbounds nuw %struct.ArrayBuildState, ptr %26, i32 0, i32 4
  %28 = load i32, ptr %27, align 4
  %29 = getelementptr inbounds [1 x i32], ptr %9, i64 0, i64 0
  store i32 %28, ptr %29, align 4
  %30 = getelementptr inbounds [1 x i32], ptr %10, i64 0, i64 0
  store i32 1, ptr %30, align 4
  %31 = load ptr, ptr %4, align 8
  %32 = getelementptr inbounds nuw %struct.ArrayBuildStateAny, ptr %31, i32 0, i32 0
  %33 = load ptr, ptr %32, align 8
  %34 = load i32, ptr %8, align 4
  %35 = getelementptr inbounds [1 x i32], ptr %9, i64 0, i64 0
  %36 = getelementptr inbounds [1 x i32], ptr %10, i64 0, i64 0
  %37 = load ptr, ptr %5, align 8
  %38 = load i8, ptr %6, align 1, !range !4, !noundef !5
  %39 = trunc i8 %38 to i1
  %40 = call i64 @makeMdArrayResult(ptr noundef %33, i32 noundef %34, ptr noundef %35, ptr noundef %36, ptr noundef %37, i1 noundef zeroext %39)
  store i64 %40, ptr %7, align 8
  call void @llvm.lifetime.end.p0(i64 4, ptr %10) #11
  call void @llvm.lifetime.end.p0(i64 4, ptr %9) #11
  call void @llvm.lifetime.end.p0(i64 4, ptr %8) #11
  br label %49

41:                                               ; preds = %3
  %42 = load ptr, ptr %4, align 8
  %43 = getelementptr inbounds nuw %struct.ArrayBuildStateAny, ptr %42, i32 0, i32 1
  %44 = load ptr, ptr %43, align 8
  %45 = load ptr, ptr %5, align 8
  %46 = load i8, ptr %6, align 1, !range !4, !noundef !5
  %47 = trunc i8 %46 to i1
  %48 = call i64 @makeArrayResultArr(ptr noundef %44, ptr noundef %45, i1 noundef zeroext %47)
  store i64 %48, ptr %7, align 8
  br label %49

49:                                               ; preds = %41, %16
  %50 = load i64, ptr %7, align 8
  call void @llvm.lifetime.end.p0(i64 8, ptr %7) #11
  ret i64 %50
}