; Function Attrs: nounwind uwtable
define dso_local noundef i64 @makeArrayResultAny(ptr noundef readonly captures(none) %0, ptr noundef %1, i1 noundef zeroext %2) local_unnamed_addr #0 {
  %4 = alloca [1 x i32], align 4
  %5 = alloca [1 x i32], align 4
  %6 = load ptr, ptr %0, align 8
  %.not = icmp eq ptr %6, null
  br i1 %.not, label %31, label %7

7:                                                ; preds = %3
  call void @llvm.lifetime.start.p0(i64 4, ptr nonnull %4) #18
  call void @llvm.lifetime.start.p0(i64 4, ptr nonnull %5) #18
  %8 = getelementptr inbounds nuw i8, ptr %6, i64 28
  %9 = load i32, ptr %8, align 4
  %10 = icmp sgt i32 %9, 0
  %11 = zext i1 %10 to i32
  store i32 %9, ptr %4, align 4
  store i32 1, ptr %5, align 4
  %12 = load ptr, ptr @CurrentMemoryContext, align 8
  store ptr %1, ptr @CurrentMemoryContext, align 8
  %13 = getelementptr inbounds nuw i8, ptr %6, i64 8
  %14 = load ptr, ptr %13, align 8
  %15 = getelementptr inbounds nuw i8, ptr %6, i64 16
  %16 = load ptr, ptr %15, align 8
  %17 = getelementptr inbounds nuw i8, ptr %6, i64 32
  %18 = load i32, ptr %17, align 8
  %19 = getelementptr inbounds nuw i8, ptr %6, i64 36
  %20 = load i16, ptr %19, align 4
  %21 = sext i16 %20 to i32
  %22 = getelementptr inbounds nuw i8, ptr %6, i64 38
  %23 = load i8, ptr %22, align 2, !range !4, !noundef !5
  %24 = trunc nuw i8 %23 to i1
  %25 = getelementptr inbounds nuw i8, ptr %6, i64 39
  %26 = load i8, ptr %25, align 1
  %27 = call ptr @construct_md_array(ptr noundef %14, ptr noundef %16, i32 noundef %11, ptr noundef nonnull %4, ptr noundef nonnull %5, i32 noundef %18, i32 noundef %21, i1 noundef zeroext %24, i8 noundef signext %26)
  store ptr %12, ptr @CurrentMemoryContext, align 8
  br i1 %2, label %28, label %makeMdArrayResult.exit

28:                                               ; preds = %7
  %29 = load ptr, ptr %6, align 8
  call void @MemoryContextDelete(ptr noundef %29) #18
  br label %makeMdArrayResult.exit

makeMdArrayResult.exit:                           ; preds = %7, %28
  %30 = ptrtoint ptr %27 to i64
  call void @llvm.lifetime.end.p0(i64 4, ptr nonnull %5) #18
  call void @llvm.lifetime.end.p0(i64 4, ptr nonnull %4) #18
  br label %35

31:                                               ; preds = %3
  %32 = getelementptr inbounds nuw i8, ptr %0, i64 8
  %33 = load ptr, ptr %32, align 8
  %34 = tail call i64 @makeArrayResultArr(ptr noundef %33, ptr noundef %1, i1 noundef zeroext %2)
  br label %35

35:                                               ; preds = %31, %makeMdArrayResult.exit
  %.0 = phi i64 [ %30, %makeMdArrayResult.exit ], [ %34, %31 ]
  ret i64 %.0
}